; ModuleID = '16/670.c'
source_filename = "16/670.c"
target datalayout = "e-m:e-p270:32:32-p271:32:32-p272:64:64-i64:64-f80:128-n8:16:32:64-S128"
target triple = "x86_64-pc-linux-gnu"

@.str = private unnamed_addr constant [4 x i8] c"%ld\00", align 1
@.str.1 = private unnamed_addr constant [2 x i8] c"\0A\00", align 1

; Function Attrs: noinline nounwind uwtable
define dso_local i32 @invert(i64 %0) #0 {
  %2 = alloca i32, align 4
  %3 = alloca i64, align 8
  store i64 %0, i64* %3, align 8
  %4 = load i64, i64* %3, align 8
  %5 = srem i64 %4, 10
  %6 = call i32 (i8*, ...) @printf(i8* getelementptr inbounds ([4 x i8], [4 x i8]* @.str, i64 0, i64 0), i64 %5)
  %7 = load i64, i64* %3, align 8
  %8 = sdiv i64 %7, 10
  store i64 %8, i64* %3, align 8
  %9 = load i64, i64* %3, align 8
  %10 = icmp sgt i64 %9, 0
  br i1 %10, label %11, label %14

11:                                               ; preds = %1
  %12 = load i64, i64* %3, align 8
  %13 = call i32 @invert(i64 %12)
  br label %14

14:                                               ; preds = %11, %1
  %15 = load i32, i32* %2, align 4
  ret i32 %15
}

declare dso_local i32 @printf(i8*, ...) #1

; Function Attrs: noinline nounwind uwtable
define dso_local i32 @main() #0 {
  %1 = alloca i64, align 8
  %2 = call i32 (i8*, ...) @__isoc99_scanf(i8* getelementptr inbounds ([4 x i8], [4 x i8]* @.str, i64 0, i64 0), i64* %1)
  %3 = load i64, i64* %1, align 8
  %4 = call i32 @invert(i64 %3)
  %5 = call i32 (i8*, ...) @printf(i8* getelementptr inbounds ([2 x i8], [2 x i8]* @.str.1, i64 0, i64 0))
  ret i32 0
}

declare dso_local i32 @__isoc99_scanf(i8*, ...) #1


!llvm.module.flags = !{!0}
!llvm.ident = !{!1}

!0 = !{i32 1, !"wchar_size", i32 4}
!1 = !{!"clang version 10.0.0-4ubuntu1 "}
